Certificate:
    Data:
        Version: 3 (0x2)
        Serial Number:
            3e:86:96:e3:7d:f8:13:2d:99:a4:c6:d8:fd:81:20:62
    Signature Algorithm: sha256WithRSAEncryption
        Issuer: CN=Orent
        Validity
            Not Before: Nov 23 13:50:12 2020 GMT
            Not After : Feb 26 13:50:12 2023 GMT
        Subject: CN=client1.domain.tld
        Subject Public Key Info:
            Public Key Algorithm: rsaEncryption
                Public-Key: (2048 bit)
                Modulus:
                    00:b3:cd:07:1c:6a:4b:03:e5:37:20:5f:c8:8f:06:
                    61:f3:00:fb:52:41:dc:6b:d6:77:2d:c6:df:80:0a:
                    80:1c:23:bc:4d:9f:5b:15:7f:28:6e:97:e9:86:fd:
                    36:e0:68:6d:5a:75:8b:99:a7:02:3c:b2:c6:5e:bb:
                    04:b2:88:26:4a:cf:30:6e:7c:56:38:a9:30:c8:78:
                    32:7d:4d:34:b7:85:d7:f3:37:69:14:90:f3:74:1b:
                    80:eb:57:71:db:da:0a:49:7b:70:13:e5:e4:bc:9b:
                    32:cc:47:78:24:9e:c8:5d:4b:10:a7:7a:b1:78:9e:
                    27:10:3b:00:d2:ba:be:64:b3:94:ee:eb:d7:7c:99:
                    2a:6b:9b:c0:f4:f2:6a:0a:b1:4d:3c:ea:e6:f3:92:
                    f2:97:33:65:1a:f4:80:08:59:e2:f6:d8:25:b3:19:
                    53:0a:ce:2b:e3:c9:87:61:3f:92:39:6e:a5:c0:fb:
                    06:b8:db:9f:12:55:a3:25:d3:c0:a8:14:24:9b:a4:
                    18:ab:8e:22:a9:7b:2d:05:63:6e:38:22:24:1e:3e:
                    a5:99:c9:28:61:d5:f4:d5:b1:41:a6:df:23:fe:22:
                    89:4f:0b:7b:b5:5a:35:ec:23:da:86:5d:e0:b8:19:
                    07:83:b9:1b:d8:98:96:55:56:48:50:1c:ec:61:ad:
                    73:4f
                Exponent: 65537 (0x10001)
        X509v3 extensions:
            X509v3 Basic Constraints: 
                CA:FALSE
            X509v3 Subject Key Identifier: 
                BD:D4:6B:9F:C2:F6:AE:73:DC:16:B3:E1:B9:42:16:C1:81:68:75:41
            X509v3 Authority Key Identifier: 
                keyid:19:B2:5D:8B:C9:6E:1D:C5:D9:09:8E:71:DB:51:01:67:64:F6:0A:9B
                DirName:/CN=Orent
                serial:A5:8F:DD:68:2E:8E:2F:A7

            X509v3 Extended Key Usage: 
                TLS Web Client Authentication
            X509v3 Key Usage: 
                Digital Signature
    Signature Algorithm: sha256WithRSAEncryption
         45:0a:97:15:44:ef:55:db:86:97:62:3d:9c:b6:6b:77:7e:e8:
         69:b9:b4:01:b8:2e:41:44:49:83:91:68:11:d1:7b:d0:c1:7a:
         a4:ec:be:69:52:55:89:1b:9e:32:2f:ef:39:58:ef:b8:0d:c4:
         75:43:27:c1:2c:36:18:dc:c3:22:49:40:f2:14:e6:a9:65:66:
         a0:49:62:89:3e:a6:a0:52:12:cd:a2:e2:fc:b0:28:0e:d2:e0:
         eb:cf:94:04:e5:db:eb:5f:f7:e6:61:73:c5:f7:8f:0b:f6:0b:
         2a:0f:59:ca:0e:90:fe:26:aa:fc:4d:ba:39:ea:45:d9:cd:d9:
         aa:d3:24:35:ea:02:17:f9:3c:b1:21:38:5f:34:41:79:9a:84:
         16:cb:10:a7:84:2f:90:0b:6a:88:1c:4d:34:73:cd:0d:8f:ae:
         57:ee:f7:e4:f7:74:85:2f:96:8b:4b:ae:42:d4:67:1a:6f:55:
         4d:75:a8:7b:55:a5:83:17:2b:89:fc:b0:3c:5c:5b:92:ab:72:
         d4:d7:2c:52:cf:df:cc:7a:9d:f3:b7:93:03:c7:1c:ee:dd:11:
         4c:64:9c:85:33:4e:c7:ca:e1:cf:61:5b:9a:9d:cb:45:20:16:
         0e:5d:35:9e:15:7b:03:2c:16:c7:c3:f2:e6:8a:7c:e1:6b:40:
         b2:b6:81:df
-----BEGIN CERTIFICATE-----
MIIDSTCCAjGgAwIBAgIQPoaW4334Ey2ZpMbY/YEgYjANBgkqhkiG9w0BAQsFADAQ
MQ4wDAYDVQQDDAVPcmVudDAeFw0yMDExMjMxMzUwMTJaFw0yMzAyMjYxMzUwMTJa
MB0xGzAZBgNVBAMMEmNsaWVudDEuZG9tYWluLnRsZDCCASIwDQYJKoZIhvcNAQEB
BQADggEPADCCAQoCggEBALPNBxxqSwPlNyBfyI8GYfMA+1JB3GvWdy3G34AKgBwj
vE2fWxV/KG6X6Yb9NuBobVp1i5mnAjyyxl67BLKIJkrPMG58VjipMMh4Mn1NNLeF
1/M3aRSQ83QbgOtXcdvaCkl7cBPl5LybMsxHeCSeyF1LEKd6sXieJxA7ANK6vmSz
lO7r13yZKmubwPTyagqxTTzq5vOS8pczZRr0gAhZ4vbYJbMZUwrOK+PJh2E/kjlu
pcD7BrjbnxJVoyXTwKgUJJukGKuOIql7LQVjbjgiJB4+pZnJKGHV9NWxQabfI/4i
iU8Le7VaNewj2oZd4LgZB4O5G9iYllVWSFAc7GGtc08CAwEAAaOBkTCBjjAJBgNV
HRMEAjAAMB0GA1UdDgQWBBS91Gufwvauc9wWs+G5QhbBgWh1QTBABgNVHSMEOTA3
gBQZsl2LyW4dxdkJjnHbUQFnZPYKm6EUpBIwEDEOMAwGA1UEAwwFT3JlbnSCCQCl
j91oLo4vpzATBgNVHSUEDDAKBggrBgEFBQcDAjALBgNVHQ8EBAMCB4AwDQYJKoZI
hvcNAQELBQADggEBAEUKlxVE71XbhpdiPZy2a3d+6Gm5tAG4LkFESYORaBHRe9DB
eqTsvmlSVYkbnjIv7zlY77gNxHVDJ8EsNhjcwyJJQPIU5qllZqBJYok+pqBSEs2i
4vywKA7S4OvPlATl2+tf9+Zhc8X3jwv2CyoPWcoOkP4mqvxNujnqRdnN2arTJDXq
Ahf5PLEhOF80QXmahBbLEKeEL5ALaogcTTRzzQ2Prlfu9+T3dIUvlotLrkLUZxpv
VU11qHtVpYMXK4n8sDxcW5KrctTXLFLP38x6nfO3kwPHHO7dEUxknIUzTsfK4c9h
W5qdy0UgFg5dNZ4VewMsFsfD8uaKfOFrQLK2gd8=
-----END CERTIFICATE-----
