Certificate:
    Data:
        Version: 3 (0x2)
        Serial Number:
            3d:f2:45:f0:a2:3b:3b:f0:7b:66:97:90:bb:3e:df:85
    Signature Algorithm: sha256WithRSAEncryption
        Issuer: CN=Orent
        Validity
            Not Before: Nov 23 13:50:53 2020 GMT
            Not After : Feb 26 13:50:53 2023 GMT
        Subject: CN=client2.domain.tld
        Subject Public Key Info:
            Public Key Algorithm: rsaEncryption
                Public-Key: (2048 bit)
                Modulus:
                    00:d6:45:c6:26:97:50:43:bb:b1:2c:95:ec:f3:c6:
                    3b:01:48:34:70:78:60:95:64:a0:d0:85:bf:4c:1a:
                    db:02:d4:fd:ea:41:ed:fb:72:e8:52:69:7a:ce:ed:
                    8c:e7:06:95:e5:4f:59:1e:27:f8:b4:9e:fd:70:bc:
                    be:11:af:2b:5f:7a:16:c5:ff:e4:a3:a2:40:ec:43:
                    6f:60:31:76:88:27:62:26:ca:1f:19:17:c9:61:9f:
                    74:41:42:b1:d5:48:8a:e2:6f:15:21:37:86:f4:6a:
                    eb:16:dd:bb:25:48:4b:56:73:07:b4:d1:0d:2f:66:
                    63:2a:c6:23:34:87:34:1b:b7:03:2d:3b:cb:26:8b:
                    73:8a:af:b3:f1:6d:09:d2:de:9d:80:3b:e4:7b:e5:
                    24:13:71:24:61:29:89:1d:9b:89:27:70:a7:9b:0a:
                    49:86:8e:ad:6f:e0:13:74:e9:19:ae:41:f8:50:c0:
                    b9:9f:e2:e5:b7:7e:5f:46:57:f2:9b:66:89:55:8d:
                    9e:fc:77:12:58:65:a1:67:76:b5:a2:84:b4:07:43:
                    b4:12:22:1a:f5:8e:04:f8:61:f1:7a:cd:e6:17:69:
                    b5:10:a6:7e:61:f8:e6:5f:16:b3:a8:4b:94:9e:ae:
                    bb:96:77:27:ae:ca:c6:b4:93:eb:11:d0:ad:80:36:
                    c7:fb
                Exponent: 65537 (0x10001)
        X509v3 extensions:
            X509v3 Basic Constraints: 
                CA:FALSE
            X509v3 Subject Key Identifier: 
                84:67:FE:BA:B7:F4:7A:25:DF:AB:59:2D:AA:E9:6F:2E:D3:BF:AE:0F
            X509v3 Authority Key Identifier: 
                keyid:19:B2:5D:8B:C9:6E:1D:C5:D9:09:8E:71:DB:51:01:67:64:F6:0A:9B
                DirName:/CN=Orent
                serial:A5:8F:DD:68:2E:8E:2F:A7

            X509v3 Extended Key Usage: 
                TLS Web Client Authentication
            X509v3 Key Usage: 
                Digital Signature
    Signature Algorithm: sha256WithRSAEncryption
         68:a1:38:70:77:83:6d:41:3a:9f:b7:6a:7b:c1:fa:04:36:c1:
         cd:74:c8:20:15:89:06:20:29:b7:a4:c1:b3:07:27:39:22:25:
         fc:c0:28:78:30:2f:ec:90:25:f1:a5:72:e0:9c:12:fb:32:ce:
         40:d4:ca:20:f8:35:6c:4e:83:c8:fe:c2:c5:84:93:67:f4:d1:
         b6:02:55:d0:a3:90:85:a1:82:9f:d0:cc:81:70:3c:8e:22:a5:
         52:fd:af:78:d0:cd:23:95:af:81:98:e2:e5:91:b4:03:3f:4e:
         e4:a4:96:e4:be:a0:a3:b6:7f:73:11:38:45:56:ad:ab:06:71:
         a7:67:78:66:7a:ff:2f:7d:e0:58:de:e3:42:2d:27:c1:10:18:
         7a:8c:8b:88:59:a6:56:36:20:22:7e:83:f4:da:57:61:ae:6e:
         70:06:c2:e5:69:36:01:47:7e:ed:29:59:fe:0a:82:c3:90:09:
         d9:40:bb:01:30:6b:4f:73:57:df:9c:bf:76:c5:5a:8f:ce:da:
         4a:72:1c:8f:50:e0:72:6b:45:bc:b5:be:ee:a8:e9:d5:49:fb:
         8e:3d:b4:68:45:0c:48:18:f4:0e:34:6c:93:b6:99:ec:de:12:
         e0:02:7e:9e:56:a2:19:bf:b1:4b:cd:c0:0e:7c:97:f0:47:97:
         70:88:49:62
-----BEGIN CERTIFICATE-----
MIIDSTCCAjGgAwIBAgIQPfJF8KI7O/B7ZpeQuz7fhTANBgkqhkiG9w0BAQsFADAQ
MQ4wDAYDVQQDDAVPcmVudDAeFw0yMDExMjMxMzUwNTNaFw0yMzAyMjYxMzUwNTNa
MB0xGzAZBgNVBAMMEmNsaWVudDIuZG9tYWluLnRsZDCCASIwDQYJKoZIhvcNAQEB
BQADggEPADCCAQoCggEBANZFxiaXUEO7sSyV7PPGOwFINHB4YJVkoNCFv0wa2wLU
/epB7fty6FJpes7tjOcGleVPWR4n+LSe/XC8vhGvK196FsX/5KOiQOxDb2Axdogn
YibKHxkXyWGfdEFCsdVIiuJvFSE3hvRq6xbduyVIS1ZzB7TRDS9mYyrGIzSHNBu3
Ay07yyaLc4qvs/FtCdLenYA75HvlJBNxJGEpiR2biSdwp5sKSYaOrW/gE3TpGa5B
+FDAuZ/i5bd+X0ZX8ptmiVWNnvx3ElhloWd2taKEtAdDtBIiGvWOBPhh8XrN5hdp
tRCmfmH45l8Ws6hLlJ6uu5Z3J67KxrST6xHQrYA2x/sCAwEAAaOBkTCBjjAJBgNV
HRMEAjAAMB0GA1UdDgQWBBSEZ/66t/R6Jd+rWS2q6W8u07+uDzBABgNVHSMEOTA3
gBQZsl2LyW4dxdkJjnHbUQFnZPYKm6EUpBIwEDEOMAwGA1UEAwwFT3JlbnSCCQCl
j91oLo4vpzATBgNVHSUEDDAKBggrBgEFBQcDAjALBgNVHQ8EBAMCB4AwDQYJKoZI
hvcNAQELBQADggEBAGihOHB3g21BOp+3anvB+gQ2wc10yCAViQYgKbekwbMHJzki
JfzAKHgwL+yQJfGlcuCcEvsyzkDUyiD4NWxOg8j+wsWEk2f00bYCVdCjkIWhgp/Q
zIFwPI4ipVL9r3jQzSOVr4GY4uWRtAM/TuSkluS+oKO2f3MROEVWrasGcadneGZ6
/y994Fje40ItJ8EQGHqMi4hZplY2ICJ+g/TaV2GubnAGwuVpNgFHfu0pWf4KgsOQ
CdlAuwEwa09zV9+cv3bFWo/O2kpyHI9Q4HJrRby1vu6o6dVJ+449tGhFDEgY9A40
bJO2mezeEuACfp5Wohm/sUvNwA58l/BHl3CISWI=
-----END CERTIFICATE-----
